(dp0
V/home/eltonr/Downloads/Good Omens - Neal Gaiman.epub
p1
(lp2
V/home/eltonr/Downloads/EMANER_NONE_Gaiman.Neal_NONE_Good.Omens_UND_NONE.epub
p3
asV/home/eltonr/Downloads/nihms186088.pdf
p4
(lp5
V/home/eltonr/Downloads/DELIAF_nihms186088.pdf
p6
asV/home/eltonr/Downloads/Building Probabilistic Graphical Models with Python [DrLol].pdf
p7
(lp8
V/home/eltonr/Downloads/NRAW_Building Probabilistic Graphical Models with Python [DrLol].pdf
p9
asV/home/eltonr/Downloads/nmeth.3180.pdf
p10
(lp11
V/home/eltonr/Downloads/DELIAF_nmeth.3180.pdf
p12
asV/home/eltonr/Downloads/265224d0a43f11e48ae06b51692b3a12.pdf
p13
(lp14
V/home/eltonr/Downloads/DELIAF_265224d0a43f11e48ae06b51692b3a12.pdf
p15
asV/home/eltonr/Downloads/EECS-2009-28.pdf
p16
(lp17
V/home/eltonr/Downloads/DELIAF_EECS-2009-28.pdf
p18
asV/home/eltonr/Downloads/bugdanovicAbstract.pdf
p19
(lp20
V/home/eltonr/Downloads/DELIAF_bugdanovicAbstract.pdf
p21
asV/home/eltonr/Downloads/export_confirmation.pdf
p22
(lp23
V/home/eltonr/Downloads/DELIAF_export_confirmation.pdf
p24
as.