(dp0
S'92-4-156110-6'
p1
(lp2
S'/archives/biocomp/rexhepaj/Telechargement/os2_tablet.pdf'
p3
asS'978-1-491-91027-6'
p4
(lp5
S'/archives/biocomp/rexhepaj/Telechargement/OReilly_Web_Scraping_with_Python.pdf'
p6
asS'978-1-118-26136-1'
p7
(lp8
S'/archives/biocomp/rexhepaj/Telechargement/Programming Interviews Exposed 3rd Edition.pdf'
p9
asS'978-1-449-34115-2'
p10
(lp11
S'/archives/biocomp/rexhepaj/Telechargement/s-patil2.pdf'
p12
asS'978-1-491-92119-7'
p13
(lp14
S'/archives/biocomp/rexhepaj/Telechargement/data-driven.pdf'
p15
asS'0-201-14192-2'
p16
(lp17
S'/archives/biocomp/rexhepaj/Telechargement/tidy-data.pdf'
p18
asS'978-988-17012-8-2'
p19
(lp20
S'/archives/biocomp/rexhepaj/Telechargement/IMECS2010_pp77-80-1.pdf'
p21
asS'12859-015-0611-3'
p22
(lp23
S'/archives/biocomp/rexhepaj/Telechargement/s12859-015-0611-3.pdf'
p24
asS'978-1-449-31623-5'
p25
(lp26
S'/archives/biocomp/rexhepaj/Telechargement/s-patil1.pdf'
p27
asS'3-900051-07-0'
p28
(lp29
S'/archives/biocomp/rexhepaj/Telechargement/HTSanalyzeR-Vignette.pdf'
p30
asS'978-3-9523926-0-7'
p31
(lp32
S'/archives/biocomp/rexhepaj/Telechargement/NBODipoleswithKNIMEPythonandPandas.pdf'
p33
asS'82-7385-176-1'
p34
(lp35
S'/archives/biocomp/rexhepaj/Telechargement/MVoutliers.pdf'
p36
asS'978-1-4614-7137-0'
p37
(lp38
S'/archives/biocomp/rexhepaj/Telechargement/ISLR First Printing.pdf'
p39
asS'978-1-449-31979-3'
p40
(lp41
S'/archives/biocomp/rexhepaj/Telechargement/Python_for_Data_Analysis.pdf'
p42
asS'12859-015-0762-2'
p43
(lp44
S'/archives/biocomp/rexhepaj/Telechargement/s12859-015-0762-2.pdf'
p45
asS'978-0-12-385967-9'
p46
(lp47
S'/archives/biocomp/rexhepaj/Telechargement/Science-2014-Chen-.pdf'
p48
asS'978-1-849511-26-1'
p49
(lp50
S'/archives/biocomp/rexhepaj/Telechargement/Python.3.Object.Oriented.Programming.Dusty.Phillips.2010.pdf'
p51
asS'1-58113-838-5'
p52
(lp53
S'/archives/biocomp/rexhepaj/Telechargement/Bioinformatics-2014-Chung-bioinformatics_btu674.pdf'
p54
asS'978-94-007-0286-8'
p55
(lp56
S'/archives/biocomp/rexhepaj/Telechargement/PredictingToxicityUsingGPTIPS2011.pdf'
p57
asS'978-0-262-01802-9'
p58
(lp59
S'/archives/biocomp/rexhepaj/Telechargement/Machine_Learning-_A_Probabilistic_Perspective.pdf'
p60
as.